; Function Attrs: mustprogress uwtable
define noundef i32 @_ZNK6icu_7515AlphabeticIndex14ImmutableIndex14getBucketIndexERKNS_13UnicodeStringER10UErrorCode(ptr nocapture noundef nonnull readonly align 8 dereferenceable(24) %this, ptr noundef nonnull align 8 dereferenceable(64) %name, ptr noundef nonnull align 4 dereferenceable(4) %errorCode) local_unnamed_addr #3 align 2 {
entry:
  %buckets_ = getelementptr inbounds i8, ptr %this, i64 8
  %0 = load ptr, ptr %buckets_, align 8
  %collatorPrimaryOnly_ = getelementptr inbounds i8, ptr %this, i64 16
  %1 = load ptr, ptr %collatorPrimaryOnly_, align 8
  %bucketList_.i = getelementptr inbounds i8, ptr %0, i64 8
  %2 = load ptr, ptr %bucketList_.i, align 8
  %count.i.i = getelementptr inbounds i8, ptr %2, i64 8
  %3 = load i32, ptr %count.i.i, align 8
  %cmp10.i = icmp sgt i32 %3, 1
  br i1 %cmp10.i, label %while.body.i, label %_ZN6icu_7510BucketList14getBucketIndexERKNS_13UnicodeStringERKNS_8CollatorER10UErrorCode.exit

while.body.i:                                     ; preds = %entry, %while.body.i
  %start.012.i = phi i32 [ %start.0.div8.i, %while.body.i ], [ 0, %entry ]
  %limit.011.i = phi i32 [ %div8.limit.0.i, %while.body.i ], [ %3, %entry ]
  %add2.i = add nuw nsw i32 %limit.011.i, %start.012.i
  %div8.i = lshr i32 %add2.i, 1
  %4 = load ptr, ptr %bucketList_.i, align 8
  %call.i.i.i = tail call noundef ptr @_ZNK6icu_757UVector9elementAtEi(ptr noundef nonnull align 8 dereferenceable(40) %4, i32 noundef %div8.i)
  %lowerBoundary_.i = getelementptr inbounds i8, ptr %call.i.i.i, i64 72
  %vtable.i = load ptr, ptr %1, align 8
  %vfn.i = getelementptr inbounds i8, ptr %vtable.i, i64 56
  %5 = load ptr, ptr %vfn.i, align 8
  %call5.i = tail call noundef i32 %5(ptr noundef nonnull align 8 dereferenceable(8) %1, ptr noundef nonnull align 8 dereferenceable(64) %name, ptr noundef nonnull align 8 dereferenceable(64) %lowerBoundary_.i, ptr noundef nonnull align 4 dereferenceable(4) %errorCode)
  %cmp6.i = icmp slt i32 %call5.i, 0
  %div8.limit.0.i = select i1 %cmp6.i, i32 %div8.i, i32 %limit.011.i
  %start.0.div8.i = select i1 %cmp6.i, i32 %start.012.i, i32 %div8.i
  %add.i = add nuw nsw i32 %start.0.div8.i, 1
  %cmp.i = icmp slt i32 %add.i, %div8.limit.0.i
  br i1 %cmp.i, label %while.body.i, label %while.end.loopexit.i, !llvm.loop !4

while.end.loopexit.i:                             ; preds = %while.body.i
  %.pre.i = load ptr, ptr %bucketList_.i, align 8
  br label %_ZN6icu_7510BucketList14getBucketIndexERKNS_13UnicodeStringERKNS_8CollatorER10UErrorCode.exit

_ZN6icu_7510BucketList14getBucketIndexERKNS_13UnicodeStringERKNS_8CollatorER10UErrorCode.exit: ; preds = %entry, %while.end.loopexit.i
  %6 = phi ptr [ %2, %entry ], [ %.pre.i, %while.end.loopexit.i ]
  %start.0.lcssa.i = phi i32 [ 0, %entry ], [ %start.0.div8.i, %while.end.loopexit.i ]
  %call.i.i9.i = tail call noundef ptr @_ZNK6icu_757UVector9elementAtEi(ptr noundef nonnull align 8 dereferenceable(40) %6, i32 noundef %start.0.lcssa.i)
  %displayBucket_.i = getelementptr inbounds i8, ptr %call.i.i9.i, i64 144
  %7 = load ptr, ptr %displayBucket_.i, align 8
  %cmp10.not.i = icmp eq ptr %7, null
  %spec.select.i = select i1 %cmp10.not.i, ptr %call.i.i9.i, ptr %7
  %displayIndex_.i = getelementptr inbounds i8, ptr %spec.select.i, i64 152
  %8 = load i32, ptr %displayIndex_.i, align 8
  ret i32 %8
}